target datalayout = "e-m:e-p270:32:32-p271:32:32-p272:64:64-i64:64-i128:128-f80:128-n8:16:32:64-S128"
target triple = "x86_64-pc-linux-gnu"

%struct.ScanState = type { %struct.PlanState, ptr, ptr, ptr }
%struct.PlanState = type { i32, ptr, ptr, ptr, ptr, ptr, ptr, ptr, ptr, ptr, ptr, ptr, ptr, ptr, ptr, ptr, ptr, ptr, i8, ptr, ptr, ptr, ptr, ptr, i8, i8, i8, i8, i8, i8, i8, i8 }
%struct.Node = type { i32 }
%struct.RelationData = type { %struct.RelFileLocator, ptr, i32, i32, i8, i8, i8, i8, i8, i32, i32, i32, i32, ptr, ptr, i32, %struct.LockInfoData, ptr, ptr, ptr, ptr, ptr, i8, ptr, ptr, ptr, ptr, ptr, ptr, i32, ptr, i8, ptr, ptr, i32, i8, i32, ptr, i8, ptr, ptr, ptr, ptr, ptr, ptr, ptr, i32, ptr, ptr, ptr, ptr, ptr, ptr, ptr, ptr, ptr, ptr, ptr, ptr, ptr, ptr, ptr, ptr, ptr, ptr, ptr, i32, i8, ptr }
%struct.RelFileLocator = type { i32, i32, i32 }
%struct.LockInfoData = type { %struct.LockRelId }
%struct.LockRelId = type { i32, i32 }
%struct.AppendState = type { %struct.PlanState, ptr, i32, i32, i8, ptr, i32, ptr, ptr, i32, i8, i32, ptr, ptr, i32, ptr, i64, ptr, i8, ptr, ptr, ptr }
%struct.SubqueryScanState = type { %struct.ScanState, ptr }

; Function Attrs: nounwind uwtable
define internal ptr @search_plan_tree(ptr noundef %0, i32 noundef %1, ptr noundef %2) #0 {
  %4 = alloca ptr, align 8
  %5 = alloca ptr, align 8
  %6 = alloca i32, align 4
  %7 = alloca ptr, align 8
  %8 = alloca ptr, align 8
  %9 = alloca i32, align 4
  %10 = alloca ptr, align 8
  %11 = alloca ptr, align 8
  %12 = alloca i32, align 4
  %13 = alloca ptr, align 8
  store ptr %0, ptr %5, align 8
  store i32 %1, ptr %6, align 4
  store ptr %2, ptr %7, align 8
  call void @llvm.lifetime.start.p0(i64 8, ptr %8) #6
  store ptr null, ptr %8, align 8
  %14 = load ptr, ptr %5, align 8
  %15 = icmp eq ptr %14, null
  br i1 %15, label %16, label %17

16:                                               ; preds = %3
  store ptr null, ptr %4, align 8
  store i32 1, ptr %9, align 4
  br label %102

17:                                               ; preds = %3
  %18 = load ptr, ptr %5, align 8
  %19 = getelementptr inbounds nuw %struct.Node, ptr %18, i32 0, i32 0
  %20 = load i32, ptr %19, align 4
  switch i32 %20, label %89 [
    i32 402, label %21
    i32 403, label %21
    i32 404, label %21
    i32 405, label %21
    i32 407, label %21
    i32 408, label %21
    i32 409, label %21
    i32 417, label %21
    i32 418, label %21
    i32 396, label %38
    i32 393, label %75
    i32 436, label %75
    i32 410, label %82
  ]

21:                                               ; preds = %17, %17, %17, %17, %17, %17, %17, %17, %17
  call void @llvm.lifetime.start.p0(i64 8, ptr %10) #6
  %22 = load ptr, ptr %5, align 8
  store ptr %22, ptr %10, align 8
  %23 = load ptr, ptr %10, align 8
  %24 = getelementptr inbounds nuw %struct.ScanState, ptr %23, i32 0, i32 1
  %25 = load ptr, ptr %24, align 8
  %26 = icmp ne ptr %25, null
  br i1 %26, label %27, label %37

27:                                               ; preds = %21
  %28 = load ptr, ptr %10, align 8
  %29 = getelementptr inbounds nuw %struct.ScanState, ptr %28, i32 0, i32 1
  %30 = load ptr, ptr %29, align 8
  %31 = getelementptr inbounds nuw %struct.RelationData, ptr %30, i32 0, i32 15
  %32 = load i32, ptr %31, align 8
  %33 = load i32, ptr %6, align 4
  %34 = icmp eq i32 %32, %33
  br i1 %34, label %35, label %37

35:                                               ; preds = %27
  %36 = load ptr, ptr %10, align 8
  store ptr %36, ptr %8, align 8
  br label %37

37:                                               ; preds = %35, %27, %21
  store i32 2, ptr %9, align 4
  call void @llvm.lifetime.end.p0(i64 8, ptr %10) #6
  br label %90

38:                                               ; preds = %17
  call void @llvm.lifetime.start.p0(i64 8, ptr %11) #6
  %39 = load ptr, ptr %5, align 8
  store ptr %39, ptr %11, align 8
  call void @llvm.lifetime.start.p0(i64 4, ptr %12) #6
  store i32 0, ptr %12, align 4
  br label %40

40:                                               ; preds = %69, %38
  %41 = load i32, ptr %12, align 4
  %42 = load ptr, ptr %11, align 8
  %43 = getelementptr inbounds nuw %struct.AppendState, ptr %42, i32 0, i32 2
  %44 = load i32, ptr %43, align 8
  %45 = icmp slt i32 %41, %44
  br i1 %45, label %46, label %72

46:                                               ; preds = %40
  call void @llvm.lifetime.start.p0(i64 8, ptr %13) #6
  %47 = load ptr, ptr %11, align 8
  %48 = getelementptr inbounds nuw %struct.AppendState, ptr %47, i32 0, i32 1
  %49 = load ptr, ptr %48, align 8
  %50 = load i32, ptr %12, align 4
  %51 = sext i32 %50 to i64
  %52 = getelementptr inbounds ptr, ptr %49, i64 %51
  %53 = load ptr, ptr %52, align 8
  %54 = load i32, ptr %6, align 4
  %55 = load ptr, ptr %7, align 8
  %56 = call ptr @search_plan_tree(ptr noundef %53, i32 noundef %54, ptr noundef %55)
  store ptr %56, ptr %13, align 8
  %57 = load ptr, ptr %13, align 8
  %58 = icmp ne ptr %57, null
  br i1 %58, label %60, label %59

59:                                               ; preds = %46
  store i32 5, ptr %9, align 4
  br label %66

60:                                               ; preds = %46
  %61 = load ptr, ptr %8, align 8
  %62 = icmp ne ptr %61, null
  br i1 %62, label %63, label %64

63:                                               ; preds = %60
  store ptr null, ptr %4, align 8
  store i32 1, ptr %9, align 4
  br label %66

64:                                               ; preds = %60
  %65 = load ptr, ptr %13, align 8
  store ptr %65, ptr %8, align 8
  store i32 0, ptr %9, align 4
  br label %66

66:                                               ; preds = %64, %63, %59
  call void @llvm.lifetime.end.p0(i64 8, ptr %13) #6
  %67 = load i32, ptr %9, align 4
  switch i32 %67, label %73 [
    i32 0, label %68
    i32 5, label %69
  ]

68:                                               ; preds = %66
  br label %69

69:                                               ; preds = %68, %66
  %70 = load i32, ptr %12, align 4
  %71 = add i32 %70, 1
  store i32 %71, ptr %12, align 4
  br label %40, !llvm.loop !8

72:                                               ; preds = %40
  store i32 2, ptr %9, align 4
  br label %73

73:                                               ; preds = %72, %66
  call void @llvm.lifetime.end.p0(i64 4, ptr %12) #6
  call void @llvm.lifetime.end.p0(i64 8, ptr %11) #6
  %74 = load i32, ptr %9, align 4
  switch i32 %74, label %102 [
    i32 2, label %90
  ]

75:                                               ; preds = %17, %17
  %76 = load ptr, ptr %5, align 8
  %77 = getelementptr inbounds nuw %struct.PlanState, ptr %76, i32 0, i32 9
  %78 = load ptr, ptr %77, align 8
  %79 = load i32, ptr %6, align 4
  %80 = load ptr, ptr %7, align 8
  %81 = call ptr @search_plan_tree(ptr noundef %78, i32 noundef %79, ptr noundef %80)
  store ptr %81, ptr %8, align 8
  br label %90

82:                                               ; preds = %17
  %83 = load ptr, ptr %5, align 8
  %84 = getelementptr inbounds nuw %struct.SubqueryScanState, ptr %83, i32 0, i32 1
  %85 = load ptr, ptr %84, align 8
  %86 = load i32, ptr %6, align 4
  %87 = load ptr, ptr %7, align 8
  %88 = call ptr @search_plan_tree(ptr noundef %85, i32 noundef %86, ptr noundef %87)
  store ptr %88, ptr %8, align 8
  br label %90

89:                                               ; preds = %17
  br label %90

90:                                               ; preds = %89, %82, %75, %73, %37
  %91 = load ptr, ptr %8, align 8
  %92 = icmp ne ptr %91, null
  br i1 %92, label %93, label %100

93:                                               ; preds = %90
  %94 = load ptr, ptr %5, align 8
  %95 = getelementptr inbounds nuw %struct.PlanState, ptr %94, i32 0, i32 13
  %96 = load ptr, ptr %95, align 8
  %97 = icmp ne ptr %96, null
  br i1 %97, label %98, label %100

98:                                               ; preds = %93
  %99 = load ptr, ptr %7, align 8
  store i8 1, ptr %99, align 1
  br label %100

100:                                              ; preds = %98, %93, %90
  %101 = load ptr, ptr %8, align 8
  store ptr %101, ptr %4, align 8
  store i32 1, ptr %9, align 4
  br label %102

102:                                              ; preds = %100, %73, %16
  call void @llvm.lifetime.end.p0(i64 8, ptr %8) #6
  %103 = load ptr, ptr %4, align 8
  ret ptr %103
}