; Function Attrs: nofree nosync nounwind memory(readwrite, inaccessiblemem: none) uwtable
define internal fastcc ptr @search_plan_tree(ptr noundef readonly captures(address_is_null, ret: address, provenance) %0, i32 noundef %1, ptr noundef nonnull %2) unnamed_addr #5 {
  %4 = icmp eq ptr %0, null
  br i1 %4, label %.thread, label %5

5:                                                ; preds = %3
  %6 = load i32, ptr %0, align 4
  switch i32 %6, label %.thread [
    i32 402, label %10
    i32 403, label %10
    i32 404, label %10
    i32 405, label %10
    i32 407, label %10
    i32 408, label %10
    i32 409, label %10
    i32 417, label %10
    i32 418, label %10
    i32 396, label %.preheader
    i32 393, label %.loopexit.sink.split
    i32 436, label %.loopexit.sink.split
    i32 410, label %26
  ]

.preheader:                                       ; preds = %5
  %7 = getelementptr inbounds nuw i8, ptr %0, i64 208
  %8 = load i32, ptr %7, align 8
  %.not4154 = icmp sgt i32 %8, 0
  br i1 %.not4154, label %.lr.ph, label %.thread

.lr.ph:                                           ; preds = %.preheader
  %9 = getelementptr inbounds nuw i8, ptr %0, i64 200
  br label %17

10:                                               ; preds = %5, %5, %5, %5, %5, %5, %5, %5, %5
  %11 = getelementptr inbounds nuw i8, ptr %0, i64 200
  %12 = load ptr, ptr %11, align 8
  %.not42 = icmp eq ptr %12, null
  br i1 %.not42, label %.thread, label %13

13:                                               ; preds = %10
  %14 = getelementptr inbounds nuw i8, ptr %12, i64 72
  %15 = load i32, ptr %14, align 8
  %16 = icmp eq i32 %15, %1
  br i1 %16, label %.thread49, label %.thread

17:                                               ; preds = %.lr.ph, %22
  %indvars.iv = phi i64 [ 0, %.lr.ph ], [ %indvars.iv.next, %22 ]
  %.23355 = phi ptr [ null, %.lr.ph ], [ %.334, %22 ]
  %18 = load ptr, ptr %9, align 8
  %19 = getelementptr inbounds nuw ptr, ptr %18, i64 %indvars.iv
  %20 = load ptr, ptr %19, align 8
  %21 = tail call fastcc ptr @search_plan_tree(ptr noundef %20, i32 noundef %1, ptr noundef %2)
  %.not = icmp eq ptr %21, null
  %.not40 = icmp ne ptr %.23355, null
  %. = zext i1 %.not40 to i32
  %.035 = select i1 %.not, i32 5, i32 %.
  switch i32 %.035, label %.thread [
    i32 0, label %22
    i32 5, label %22
  ]

22:                                               ; preds = %17, %17
  %23 = select i1 %.not, i1 true, i1 %.not40
  %.334 = select i1 %23, ptr %.23355, ptr %21
  %indvars.iv.next = add nuw nsw i64 %indvars.iv, 1
  %24 = load i32, ptr %7, align 8
  %25 = sext i32 %24 to i64
  %.not41 = icmp slt i64 %indvars.iv.next, %25
  br i1 %.not41, label %17, label %.loopexit, !llvm.loop !8

26:                                               ; preds = %5
  br label %.loopexit.sink.split

.loopexit.sink.split:                             ; preds = %5, %5, %26
  %.sink = phi i64 [ 224, %26 ], [ 72, %5 ], [ 72, %5 ]
  %27 = getelementptr inbounds nuw i8, ptr %0, i64 %.sink
  %28 = load ptr, ptr %27, align 8
  %29 = tail call fastcc ptr @search_plan_tree(ptr noundef %28, i32 noundef %1, ptr noundef %2)
  br label %.loopexit

.loopexit:                                        ; preds = %22, %.loopexit.sink.split
  %.132 = phi ptr [ %29, %.loopexit.sink.split ], [ %.334, %22 ]
  %.not43 = icmp eq ptr %.132, null
  br i1 %.not43, label %.thread, label %.thread49

.thread49:                                        ; preds = %13, %.loopexit
  %.13252 = phi ptr [ %.132, %.loopexit ], [ %0, %13 ]
  %30 = getelementptr inbounds nuw i8, ptr %0, i64 104
  %31 = load ptr, ptr %30, align 8
  %.not44 = icmp eq ptr %31, null
  br i1 %.not44, label %.thread, label %32

32:                                               ; preds = %.thread49
  store i8 1, ptr %2, align 1
  br label %.thread

.thread:                                          ; preds = %17, %.preheader, %13, %10, %5, %.loopexit, %.thread49, %32, %3
  %.0 = phi ptr [ null, %3 ], [ %.13252, %32 ], [ %.13252, %.thread49 ], [ null, %.loopexit ], [ null, %5 ], [ null, %10 ], [ null, %13 ], [ null, %.preheader ], [ null, %17 ]
  ret ptr %.0
}